target datalayout = "e-m:e-p270:32:32-p271:32:32-p272:64:64-i64:64-i128:128-f80:128-n8:16:32:64-S128"
target triple = "x86_64-pc-linux-gnu"

%"struct.duckdb::roaring::ContainerScanState" = type { ptr, i64, i64, i64 }
%"struct.duckdb::roaring::BitsetContainerScanState" = type { %"struct.duckdb::roaring::ContainerScanState", ptr }

; Function Attrs: mustprogress uwtable
define void @_ZN6duckdb7roaring24BitsetContainerScanState11ScanPartialERNS_6VectorEmm(ptr noundef nonnull align 8 dereferenceable(40) %0, ptr noundef nonnull align 8 dereferenceable(104) %1, i64 noundef %2, i64 noundef %3) unnamed_addr #0 align 2 {
  %5 = alloca ptr, align 8
  %6 = alloca ptr, align 8
  %7 = alloca i64, align 8
  %8 = alloca i64, align 8
  store ptr %0, ptr %5, align 8, !tbaa !465
  store ptr %1, ptr %6, align 8, !tbaa !101
  store i64 %2, ptr %7, align 8, !tbaa !8
  store i64 %3, ptr %8, align 8, !tbaa !8
  %9 = load ptr, ptr %5, align 8
  %10 = load i64, ptr %7, align 8, !tbaa !8
  %11 = icmp ne i64 %10, 0
  br i1 %11, label %28, label %12

12:                                               ; preds = %4
  %13 = load i64, ptr %8, align 8, !tbaa !8
  %14 = urem i64 %13, 64
  %15 = icmp eq i64 %14, 0
  br i1 %15, label %16, label %28

16:                                               ; preds = %12
  %17 = getelementptr inbounds nuw %"struct.duckdb::roaring::ContainerScanState", ptr %9, i32 0, i32 3
  %18 = load i64, ptr %17, align 8, !tbaa !208
  %19 = urem i64 %18, 64
  %20 = icmp eq i64 %19, 0
  br i1 %20, label %21, label %28

21:                                               ; preds = %16
  %22 = getelementptr inbounds nuw %"struct.duckdb::roaring::BitsetContainerScanState", ptr %9, i32 0, i32 1
  %23 = load ptr, ptr %22, align 8, !tbaa !467
  %24 = getelementptr inbounds nuw %"struct.duckdb::roaring::ContainerScanState", ptr %9, i32 0, i32 3
  %25 = load i64, ptr %24, align 8, !tbaa !208
  %26 = load ptr, ptr %6, align 8, !tbaa !101
  %27 = load i64, ptr %8, align 8, !tbaa !8
  call void @_ZN6duckdb20ValidityUncompressed11AlignedScanEPhmRNS_6VectorEm(ptr noundef %23, i64 noundef %25, ptr noundef nonnull align 8 dereferenceable(104) %26, i64 noundef %27)
  br label %38

28:                                               ; preds = %16, %12, %4
  %29 = getelementptr inbounds nuw %"struct.duckdb::roaring::BitsetContainerScanState", ptr %9, i32 0, i32 1
  %30 = load ptr, ptr %29, align 8, !tbaa !467
  %31 = getelementptr inbounds nuw %"struct.duckdb::roaring::ContainerScanState", ptr %9, i32 0, i32 2
  %32 = load i64, ptr %31, align 8, !tbaa !206
  %33 = getelementptr inbounds nuw %"struct.duckdb::roaring::ContainerScanState", ptr %9, i32 0, i32 3
  %34 = load i64, ptr %33, align 8, !tbaa !208
  %35 = load ptr, ptr %6, align 8, !tbaa !101
  %36 = load i64, ptr %7, align 8, !tbaa !8
  %37 = load i64, ptr %8, align 8, !tbaa !8
  call void @_ZN6duckdb20ValidityUncompressed13UnalignedScanEPhmmRNS_6VectorEmm(ptr noundef %30, i64 noundef %32, i64 noundef %34, ptr noundef nonnull align 8 dereferenceable(104) %35, i64 noundef %36, i64 noundef %37)
  br label %38

38:                                               ; preds = %28, %21
  %39 = load i64, ptr %8, align 8, !tbaa !8
  %40 = getelementptr inbounds nuw %"struct.duckdb::roaring::ContainerScanState", ptr %9, i32 0, i32 3
  %41 = load i64, ptr %40, align 8, !tbaa !208
  %42 = add i64 %41, %39
  store i64 %42, ptr %40, align 8, !tbaa !208
  ret void
}