; Function Attrs: mustprogress uwtable
define void @_ZN6duckdb7roaring24BitsetContainerScanState11ScanPartialERNS_6VectorEmm(ptr noundef nonnull align 8 captures(none) dereferenceable(40) %0, ptr noundef nonnull align 8 dereferenceable(104) %1, i64 noundef %2, i64 noundef %3) unnamed_addr #0 align 2 {
  %5 = and i64 %3, 63
  %6 = or i64 %5, %2
  %or.cond = icmp eq i64 %6, 0
  %7 = getelementptr inbounds nuw i8, ptr %0, i64 24
  %8 = load i64, ptr %7, align 8, !tbaa !186
  %9 = and i64 %8, 63
  %10 = icmp eq i64 %9, 0
  %or.cond10 = select i1 %or.cond, i1 %10, i1 false
  %11 = getelementptr inbounds nuw i8, ptr %0, i64 32
  %12 = load ptr, ptr %11, align 8, !tbaa !433
  br i1 %or.cond10, label %13, label %._crit_edge

13:                                               ; preds = %4
  tail call void @_ZN6duckdb20ValidityUncompressed11AlignedScanEPhmRNS_6VectorEm(ptr noundef %12, i64 noundef %8, ptr noundef nonnull align 8 dereferenceable(104) %1, i64 noundef %3)
  br label %16

._crit_edge:                                      ; preds = %4
  %14 = getelementptr inbounds nuw i8, ptr %0, i64 16
  %15 = load i64, ptr %14, align 8, !tbaa !184
  tail call void @_ZN6duckdb20ValidityUncompressed13UnalignedScanEPhmmRNS_6VectorEmm(ptr noundef %12, i64 noundef %15, i64 noundef %8, ptr noundef nonnull align 8 dereferenceable(104) %1, i64 noundef %2, i64 noundef %3)
  br label %16

16:                                               ; preds = %._crit_edge, %13
  %17 = getelementptr inbounds nuw i8, ptr %0, i64 24
  %18 = load i64, ptr %17, align 8, !tbaa !186
  %19 = add i64 %18, %3
  store i64 %19, ptr %17, align 8, !tbaa !186
  ret void
}